target datalayout = "e-m:e-p270:32:32-p271:32:32-p272:64:64-i64:64-i128:128-f80:128-n8:16:32:64-S128"
target triple = "x86_64-pc-linux-gnu"

%struct.lstopo_ascii_output = type { ptr, ptr, i32, i32, i32 }
%struct.lstopo_output = type { ptr, i32, i32, i32, ptr, i32, i32, i32, i32, i32, i32, i32, i32, ptr, ptr, i32, i32, i64, i64, i64, i32, [3 x [128 x i8]], i32, i32, ptr, i32, i32, i32, i32, i32, i32, %struct.hwloc_calc_level, i32, i32, i32, i64, [256 x i8], i32, i32, i32, i32, i32, float, [20 x i32], i32, i32, i32, [20 x i32], i32, [20 x i32], i32, [20 x i32], i32, i32, i32, i32, ptr, ptr, i32, [20 x i32], [20 x i32], [20 x i32], ptr, ptr, i64, ptr, i32, i32, i32 }
%struct.hwloc_calc_level = type { i32, i32, %union.hwloc_obj_attr_u, [32 x i8], i32, i32, i32, i32 }
%union.hwloc_obj_attr_u = type { %struct.hwloc_numanode_attr_s, [24 x i8] }
%struct.hwloc_numanode_attr_s = type { i64, i32, ptr }
%struct.cell = type { i32, ptr, ptr }

@.str.3 = private unnamed_addr constant [3 x i32] [i32 37, i32 115, i32 0], align 4

; Function Attrs: nounwind uwtable
define internal void @put(ptr noundef %0, i32 noundef %1, i32 noundef %2, i32 noundef %3, ptr noundef %4, ptr noundef %5) #0 {
  %7 = alloca ptr, align 8
  %8 = alloca i32, align 4
  %9 = alloca i32, align 4
  %10 = alloca i32, align 4
  %11 = alloca ptr, align 8
  %12 = alloca ptr, align 8
  store ptr %0, ptr %7, align 8, !tbaa !71
  store i32 %1, ptr %8, align 4, !tbaa !13
  store i32 %2, ptr %9, align 4, !tbaa !13
  store i32 %3, ptr %10, align 4, !tbaa !13
  store ptr %4, ptr %11, align 8, !tbaa !11
  store ptr %5, ptr %12, align 8, !tbaa !11
  %13 = load i32, ptr %8, align 4, !tbaa !13
  %14 = load ptr, ptr %7, align 8, !tbaa !71
  %15 = getelementptr inbounds nuw %struct.lstopo_ascii_output, ptr %14, i32 0, i32 3
  %16 = load i32, ptr %15, align 4, !tbaa !48
  %17 = icmp sge i32 %13, %16
  br i1 %17, label %24, label %18

18:                                               ; preds = %6
  %19 = load i32, ptr %9, align 4, !tbaa !13
  %20 = load ptr, ptr %7, align 8, !tbaa !71
  %21 = getelementptr inbounds nuw %struct.lstopo_ascii_output, ptr %20, i32 0, i32 4
  %22 = load i32, ptr %21, align 8, !tbaa !50
  %23 = icmp sge i32 %19, %22
  br i1 %23, label %24, label %25

24:                                               ; preds = %18, %6
  br label %69

25:                                               ; preds = %18
  %26 = load i32, ptr %10, align 4, !tbaa !13
  %27 = load ptr, ptr %7, align 8, !tbaa !71
  %28 = getelementptr inbounds nuw %struct.lstopo_ascii_output, ptr %27, i32 0, i32 1
  %29 = load ptr, ptr %28, align 8, !tbaa !51
  %30 = load i32, ptr %9, align 4, !tbaa !13
  %31 = sext i32 %30 to i64
  %32 = getelementptr inbounds ptr, ptr %29, i64 %31
  %33 = load ptr, ptr %32, align 8, !tbaa !52
  %34 = load i32, ptr %8, align 4, !tbaa !13
  %35 = sext i32 %34 to i64
  %36 = getelementptr inbounds %struct.cell, ptr %33, i64 %35
  %37 = getelementptr inbounds nuw %struct.cell, ptr %36, i32 0, i32 0
  store i32 %26, ptr %37, align 8, !tbaa !54
  %38 = load ptr, ptr %11, align 8, !tbaa !11
  %39 = icmp ne ptr %38, null
  br i1 %39, label %40, label %53

40:                                               ; preds = %25
  %41 = load ptr, ptr %11, align 8, !tbaa !11
  %42 = load ptr, ptr %7, align 8, !tbaa !71
  %43 = getelementptr inbounds nuw %struct.lstopo_ascii_output, ptr %42, i32 0, i32 1
  %44 = load ptr, ptr %43, align 8, !tbaa !51
  %45 = load i32, ptr %9, align 4, !tbaa !13
  %46 = sext i32 %45 to i64
  %47 = getelementptr inbounds ptr, ptr %44, i64 %46
  %48 = load ptr, ptr %47, align 8, !tbaa !52
  %49 = load i32, ptr %8, align 4, !tbaa !13
  %50 = sext i32 %49 to i64
  %51 = getelementptr inbounds %struct.cell, ptr %48, i64 %50
  %52 = getelementptr inbounds nuw %struct.cell, ptr %51, i32 0, i32 1
  store ptr %41, ptr %52, align 8, !tbaa !56
  br label %53

53:                                               ; preds = %40, %25
  %54 = load ptr, ptr %12, align 8, !tbaa !11
  %55 = icmp ne ptr %54, null
  br i1 %55, label %56, label %69

56:                                               ; preds = %53
  %57 = load ptr, ptr %12, align 8, !tbaa !11
  %58 = load ptr, ptr %7, align 8, !tbaa !71
  %59 = getelementptr inbounds nuw %struct.lstopo_ascii_output, ptr %58, i32 0, i32 1
  %60 = load ptr, ptr %59, align 8, !tbaa !51
  %61 = load i32, ptr %9, align 4, !tbaa !13
  %62 = sext i32 %61 to i64
  %63 = getelementptr inbounds ptr, ptr %60, i64 %62
  %64 = load ptr, ptr %63, align 8, !tbaa !52
  %65 = load i32, ptr %8, align 4, !tbaa !13
  %66 = sext i32 %65 to i64
  %67 = getelementptr inbounds %struct.cell, ptr %64, i64 %66
  %68 = getelementptr inbounds nuw %struct.cell, ptr %67, i32 0, i32 2
  store ptr %57, ptr %68, align 8, !tbaa !57
  br label %69

69:                                               ; preds = %24, %56, %53
  ret void
}

; Function Attrs: nounwind uwtable
define internal void @ascii_text(ptr noundef %0, ptr noundef %1, i32 noundef %2, i32 noundef %3, i32 noundef %4, i32 noundef %5, ptr noundef %6, ptr noundef %7, i32 noundef %8) #0 {
  %10 = alloca ptr, align 8
  %11 = alloca ptr, align 8
  %12 = alloca i32, align 4
  %13 = alloca i32, align 4
  %14 = alloca i32, align 4
  %15 = alloca i32, align 4
  %16 = alloca ptr, align 8
  %17 = alloca ptr, align 8
  %18 = alloca i32, align 4
  %19 = alloca ptr, align 8
  %20 = alloca i64, align 8
  %21 = alloca ptr, align 8
  %22 = alloca ptr, align 8
  store ptr %0, ptr %10, align 8, !tbaa !4
  store ptr %1, ptr %11, align 8, !tbaa !11
  store i32 %2, ptr %12, align 4, !tbaa !13
  store i32 %3, ptr %13, align 4, !tbaa !13
  store i32 %4, ptr %14, align 4, !tbaa !13
  store i32 %5, ptr %15, align 4, !tbaa !13
  store ptr %6, ptr %16, align 8, !tbaa !9
  store ptr %7, ptr %17, align 8, !tbaa !69
  store i32 %8, ptr %18, align 4, !tbaa !13
  call void @llvm.lifetime.start.p0(i64 8, ptr %19) #8
  %23 = load ptr, ptr %10, align 8, !tbaa !4
  %24 = getelementptr inbounds nuw %struct.lstopo_output, ptr %23, i32 0, i32 63
  %25 = load ptr, ptr %24, align 8, !tbaa !44
  store ptr %25, ptr %19, align 8, !tbaa !71
  %26 = load i32, ptr %14, align 4, !tbaa !13
  %27 = mul i32 %26, 2
  %28 = udiv i32 %27, 10
  store i32 %28, ptr %14, align 4, !tbaa !13
  %29 = load i32, ptr %15, align 4, !tbaa !13
  %30 = udiv i32 %29, 10
  store i32 %30, ptr %15, align 4, !tbaa !13
  call void @llvm.lifetime.start.p0(i64 8, ptr %20) #8
  %31 = load ptr, ptr %16, align 8, !tbaa !9
  %32 = call i64 @strlen(ptr noundef %31) #12
  %33 = add i64 %32, 1
  store i64 %33, ptr %20, align 8, !tbaa !79
  call void @llvm.lifetime.start.p0(i64 8, ptr %21) #8
  %34 = load i64, ptr %20, align 8, !tbaa !79
  %35 = mul i64 %34, 4
  %36 = call noalias ptr @malloc(i64 noundef %35) #10
  store ptr %36, ptr %21, align 8, !tbaa !80
  call void @llvm.lifetime.start.p0(i64 8, ptr %22) #8
  %37 = load ptr, ptr %21, align 8, !tbaa !80
  %38 = load i64, ptr %20, align 8, !tbaa !79
  %39 = load ptr, ptr %16, align 8, !tbaa !9
  %40 = call i32 (ptr, i64, ptr, ...) @swprintf(ptr noundef %37, i64 noundef %38, ptr noundef @.str.3, ptr noundef %39) #8
  %41 = load ptr, ptr %21, align 8, !tbaa !80
  store ptr %41, ptr %22, align 8, !tbaa !80
  br label %42

42:                                               ; preds = %54, %9
  %43 = load ptr, ptr %22, align 8, !tbaa !80
  %44 = load i32, ptr %43, align 4, !tbaa !13
  %45 = icmp ne i32 %44, 0
  br i1 %45, label %46, label %57

46:                                               ; preds = %42
  %47 = load ptr, ptr %19, align 8, !tbaa !71
  %48 = load i32, ptr %14, align 4, !tbaa !13
  %49 = add i32 %48, 1
  store i32 %49, ptr %14, align 4, !tbaa !13
  %50 = load i32, ptr %15, align 4, !tbaa !13
  %51 = load ptr, ptr %22, align 8, !tbaa !80
  %52 = load i32, ptr %51, align 4, !tbaa !13
  %53 = load ptr, ptr %11, align 8, !tbaa !11
  call void @put(ptr noundef %47, i32 noundef %48, i32 noundef %50, i32 noundef %52, ptr noundef %53, ptr noundef null)
  br label %54

54:                                               ; preds = %46
  %55 = load ptr, ptr %22, align 8, !tbaa !80
  %56 = getelementptr inbounds nuw i32, ptr %55, i32 1
  store ptr %56, ptr %22, align 8, !tbaa !80
  br label %42, !llvm.loop !82

57:                                               ; preds = %42
  %58 = load ptr, ptr %21, align 8, !tbaa !80
  call void @free(ptr noundef %58) #8
  call void @llvm.lifetime.end.p0(i64 8, ptr %22) #8
  call void @llvm.lifetime.end.p0(i64 8, ptr %21) #8
  call void @llvm.lifetime.end.p0(i64 8, ptr %20) #8
  call void @llvm.lifetime.end.p0(i64 8, ptr %19) #8
  ret void
}