; Function Attrs: nounwind uwtable
define internal void @ascii_text(ptr noundef readonly captures(none) %0, ptr noundef %1, i32 %2, i32 %3, i32 noundef %4, i32 noundef %5, ptr noundef %6, ptr readnone captures(none) %7, i32 %8) #0 {
  %10 = getelementptr inbounds nuw i8, ptr %0, i64 1584
  %11 = load ptr, ptr %10, align 8, !tbaa !41
  %12 = udiv i32 %5, 10
  %13 = tail call i64 @strlen(ptr noundef nonnull dereferenceable(1) %6) #20
  %14 = add i64 %13, 1
  %15 = shl i64 %14, 2
  %16 = tail call noalias ptr @malloc(i64 noundef %15) #18
  %17 = tail call i32 (ptr, i64, ptr, ...) @swprintf(ptr noundef %16, i64 noundef %14, ptr noundef nonnull @.str.3, ptr noundef nonnull %6) #15
  %18 = load i32, ptr %16, align 4, !tbaa !21
  %.not18 = icmp eq i32 %18, 0
  br i1 %.not18, label %._crit_edge, label %.lr.ph

.lr.ph:                                           ; preds = %9
  %19 = shl i32 %4, 1
  %20 = udiv i32 %19, 10
  %21 = getelementptr inbounds nuw i8, ptr %11, i64 20
  %22 = load i32, ptr %21, align 4, !tbaa !45
  %23 = getelementptr inbounds nuw i8, ptr %11, i64 24
  %24 = getelementptr inbounds nuw i8, ptr %11, i64 8
  %25 = zext nneg i32 %12 to i64
  %.not21.i = icmp eq ptr %1, null
  br i1 %.not21.i, label %.lr.ph.split.us, label %.lr.ph.split

.lr.ph.split.us:                                  ; preds = %.lr.ph, %put.exit.us
  %26 = phi i32 [ %37, %put.exit.us ], [ %18, %.lr.ph ]
  %.020.us = phi ptr [ %36, %put.exit.us ], [ %16, %.lr.ph ]
  %.01619.us = phi i32 [ %27, %put.exit.us ], [ %20, %.lr.ph ]
  %27 = add i32 %.01619.us, 1
  %.not.i.us = icmp slt i32 %.01619.us, %22
  br i1 %.not.i.us, label %28, label %put.exit.us

28:                                               ; preds = %.lr.ph.split.us
  %29 = load i32, ptr %23, align 8, !tbaa !47
  %.not20.i.us = icmp slt i32 %12, %29
  br i1 %.not20.i.us, label %30, label %put.exit.us

30:                                               ; preds = %28
  %31 = load ptr, ptr %24, align 8, !tbaa !48
  %32 = getelementptr inbounds nuw ptr, ptr %31, i64 %25
  %33 = load ptr, ptr %32, align 8, !tbaa !49
  %34 = sext i32 %.01619.us to i64
  %35 = getelementptr inbounds %struct.cell, ptr %33, i64 %34
  store i32 %26, ptr %35, align 8, !tbaa !51
  br label %put.exit.us

put.exit.us:                                      ; preds = %30, %28, %.lr.ph.split.us
  %36 = getelementptr inbounds nuw i8, ptr %.020.us, i64 4
  %37 = load i32, ptr %36, align 4, !tbaa !21
  %.not.us = icmp eq i32 %37, 0
  br i1 %.not.us, label %._crit_edge, label %.lr.ph.split.us, !llvm.loop !74

.lr.ph.split:                                     ; preds = %.lr.ph, %put.exit
  %38 = phi i32 [ %50, %put.exit ], [ %18, %.lr.ph ]
  %.020 = phi ptr [ %49, %put.exit ], [ %16, %.lr.ph ]
  %.01619 = phi i32 [ %39, %put.exit ], [ %20, %.lr.ph ]
  %39 = add i32 %.01619, 1
  %.not.i = icmp slt i32 %.01619, %22
  br i1 %.not.i, label %40, label %put.exit

40:                                               ; preds = %.lr.ph.split
  %41 = load i32, ptr %23, align 8, !tbaa !47
  %.not20.i = icmp slt i32 %12, %41
  br i1 %.not20.i, label %42, label %put.exit

42:                                               ; preds = %40
  %43 = load ptr, ptr %24, align 8, !tbaa !48
  %44 = getelementptr inbounds nuw ptr, ptr %43, i64 %25
  %45 = load ptr, ptr %44, align 8, !tbaa !49
  %46 = sext i32 %.01619 to i64
  %47 = getelementptr inbounds %struct.cell, ptr %45, i64 %46
  store i32 %38, ptr %47, align 8, !tbaa !51
  %48 = getelementptr inbounds %struct.cell, ptr %45, i64 %46, i32 1
  store ptr %1, ptr %48, align 8, !tbaa !54
  br label %put.exit

put.exit:                                         ; preds = %42, %.lr.ph.split, %40
  %49 = getelementptr inbounds nuw i8, ptr %.020, i64 4
  %50 = load i32, ptr %49, align 4, !tbaa !21
  %.not = icmp eq i32 %50, 0
  br i1 %.not, label %._crit_edge, label %.lr.ph.split, !llvm.loop !74

._crit_edge:                                      ; preds = %put.exit, %put.exit.us, %9
  tail call void @free(ptr noundef %16) #15
  ret void
}